; Function Attrs: mustprogress uwtable
define noundef i32 @_ZN3zmq22stream_listener_base_t5closeEv(ptr noundef nonnull align 8 dereferenceable(1520) %0) unnamed_addr #0 align 2 personality ptr @__gxx_personality_v0 {
  %2 = alloca %"struct.zmq::endpoint_uri_pair_t", align 8
  %3 = getelementptr inbounds nuw i8, ptr %0, i64 1464
  %4 = load i32, ptr %3, align 8, !tbaa !6
  %.not = icmp eq i32 %4, -1
  br i1 %.not, label %5, label %10, !prof !74

5:                                                ; preds = %1
  %6 = load ptr, ptr @stderr, align 8, !tbaa !71
  %7 = tail call i32 (ptr, ptr, ...) @fprintf(ptr noundef %6, ptr noundef nonnull @.str, ptr noundef nonnull @.str.4, ptr noundef nonnull @.str.2, i32 noundef 59) #19
  %8 = load ptr, ptr @stderr, align 8, !tbaa !71
  %9 = tail call i32 @fflush(ptr noundef %8)
  tail call void @_ZN3zmq9zmq_abortEPKc(ptr noundef nonnull @.str.4)
  %.pre = load i32, ptr %3, align 8, !tbaa !6
  br label %10

10:                                               ; preds = %1, %5
  %11 = phi i32 [ %4, %1 ], [ %.pre, %5 ]
  %12 = tail call i32 @close(i32 noundef %11)
  %.not5 = icmp eq i32 %12, 0
  br i1 %.not5, label %21, label %13, !prof !70

13:                                               ; preds = %10
  %14 = tail call ptr @__errno_location() #22
  %15 = load i32, ptr %14, align 4, !tbaa !75
  %16 = tail call ptr @strerror(i32 noundef %15) #18
  %17 = load ptr, ptr @stderr, align 8, !tbaa !71
  %18 = tail call i32 (ptr, ptr, ...) @fprintf(ptr noundef %17, ptr noundef nonnull @.str.5, ptr noundef %16, ptr noundef nonnull @.str.2, i32 noundef 65) #19
  %19 = load ptr, ptr @stderr, align 8, !tbaa !71
  %20 = tail call i32 @fflush(ptr noundef %19)
  tail call void @_ZN3zmq9zmq_abortEPKc(ptr noundef %16)
  br label %21

21:                                               ; preds = %13, %10
  %22 = getelementptr inbounds nuw i8, ptr %0, i64 1480
  %23 = load ptr, ptr %22, align 8, !tbaa !66
  call void @llvm.lifetime.start.p0(i64 72, ptr nonnull %2) #18
  %24 = getelementptr inbounds nuw i8, ptr %0, i64 1488
  call void @_ZN3zmq35make_unconnected_bind_endpoint_pairERKNSt7__cxx1112basic_stringIcSt11char_traitsIcESaIcEEE(ptr dead_on_unwind nonnull writable sret(%"struct.zmq::endpoint_uri_pair_t") align 8 %2, ptr noundef nonnull align 8 dereferenceable(32) %24)
  %25 = load i32, ptr %3, align 8, !tbaa !6
  invoke void @_ZN3zmq13socket_base_t12event_closedERKNS_19endpoint_uri_pair_tEi(ptr noundef nonnull align 8 dereferenceable(1825) %23, ptr noundef nonnull align 8 dereferenceable(68) %2, i32 noundef %25)
          to label %26 unwind label %40

26:                                               ; preds = %21
  %27 = getelementptr inbounds nuw i8, ptr %2, i64 32
  %28 = load ptr, ptr %27, align 8, !tbaa !73
  %29 = getelementptr inbounds nuw i8, ptr %2, i64 48
  %30 = icmp eq ptr %28, %29
  br i1 %30, label %_ZNKSt7__cxx1112basic_stringIcSt11char_traitsIcESaIcEE11_M_is_localEv.exit.thread.i.i.i, label %_ZNKSt7__cxx1112basic_stringIcSt11char_traitsIcESaIcEE11_M_is_localEv.exit.i.i.i

_ZNKSt7__cxx1112basic_stringIcSt11char_traitsIcESaIcEE11_M_is_localEv.exit.thread.i.i.i: ; preds = %26
  %31 = getelementptr inbounds nuw i8, ptr %2, i64 40
  %32 = load i64, ptr %31, align 8, !tbaa !68
  %33 = icmp ult i64 %32, 16
  call void @llvm.assume(i1 %33)
  br label %_ZNSt7__cxx1112basic_stringIcSt11char_traitsIcESaIcEED2Ev.exit.i

_ZNKSt7__cxx1112basic_stringIcSt11char_traitsIcESaIcEE11_M_is_localEv.exit.i.i.i: ; preds = %26
  call void @_ZdlPv(ptr noundef %28) #20
  br label %_ZNSt7__cxx1112basic_stringIcSt11char_traitsIcESaIcEED2Ev.exit.i

_ZNSt7__cxx1112basic_stringIcSt11char_traitsIcESaIcEED2Ev.exit.i: ; preds = %_ZNKSt7__cxx1112basic_stringIcSt11char_traitsIcESaIcEE11_M_is_localEv.exit.i.i.i, %_ZNKSt7__cxx1112basic_stringIcSt11char_traitsIcESaIcEE11_M_is_localEv.exit.thread.i.i.i
  %34 = load ptr, ptr %2, align 8, !tbaa !73
  %35 = getelementptr inbounds nuw i8, ptr %2, i64 16
  %36 = icmp eq ptr %34, %35
  br i1 %36, label %_ZNKSt7__cxx1112basic_stringIcSt11char_traitsIcESaIcEE11_M_is_localEv.exit.thread.i.i2.i, label %_ZNKSt7__cxx1112basic_stringIcSt11char_traitsIcESaIcEE11_M_is_localEv.exit.i.i1.i

_ZNKSt7__cxx1112basic_stringIcSt11char_traitsIcESaIcEE11_M_is_localEv.exit.thread.i.i2.i: ; preds = %_ZNSt7__cxx1112basic_stringIcSt11char_traitsIcESaIcEED2Ev.exit.i
  %37 = getelementptr inbounds nuw i8, ptr %2, i64 8
  %38 = load i64, ptr %37, align 8, !tbaa !68
  %39 = icmp ult i64 %38, 16
  call void @llvm.assume(i1 %39)
  br label %_ZN3zmq19endpoint_uri_pair_tD2Ev.exit

_ZNKSt7__cxx1112basic_stringIcSt11char_traitsIcESaIcEE11_M_is_localEv.exit.i.i1.i: ; preds = %_ZNSt7__cxx1112basic_stringIcSt11char_traitsIcESaIcEED2Ev.exit.i
  call void @_ZdlPv(ptr noundef %34) #20
  br label %_ZN3zmq19endpoint_uri_pair_tD2Ev.exit

_ZN3zmq19endpoint_uri_pair_tD2Ev.exit:            ; preds = %_ZNKSt7__cxx1112basic_stringIcSt11char_traitsIcESaIcEE11_M_is_localEv.exit.thread.i.i2.i, %_ZNKSt7__cxx1112basic_stringIcSt11char_traitsIcESaIcEE11_M_is_localEv.exit.i.i1.i
  call void @llvm.lifetime.end.p0(i64 72, ptr nonnull %2) #18
  store i32 -1, ptr %3, align 8, !tbaa !6
  ret i32 0

40:                                               ; preds = %21
  %41 = landingpad { ptr, i32 }
          cleanup
  call void @_ZN3zmq19endpoint_uri_pair_tD2Ev(ptr noundef nonnull align 8 dereferenceable(68) %2) #18
  call void @llvm.lifetime.end.p0(i64 72, ptr nonnull %2) #18
  resume { ptr, i32 } %41
}